; Function Attrs: mustprogress uwtable
define hidden noundef range(i32 1, 3) i32 @_ZN4cvc58internal6theory11quantifiers11ModelEngine10needsModelENS1_6Theory6EffortE(ptr noundef nonnull align 8 dereferenceable(128) %0, i32 %1) unnamed_addr #3 align 2 {
  %3 = tail call noundef nonnull align 8 dereferenceable(408) ptr @_ZNK4cvc58internal6EnvObj7optionsEv(ptr noundef nonnull align 8 dereferenceable(16) %0)
  %4 = getelementptr inbounds nuw i8, ptr %3, i64 344
  %5 = load ptr, ptr %4, align 8, !tbaa !41
  %6 = getelementptr inbounds nuw i8, ptr %5, i64 295
  %7 = load i8, ptr %6, align 1, !tbaa !225, !range !264, !noundef !265
  %8 = trunc nuw i8 %7 to i1
  %. = select i1 %8, i32 1, i32 2
  ret i32 %.
}